target datalayout = "e-m:e-p270:32:32-p271:32:32-p272:64:64-i64:64-i128:128-f80:128-n8:16:32:64-S128"
target triple = "x86_64-unknown-linux-gnu"

; Function Attrs: mustprogress nounwind uwtable
define hidden noundef ptr @_ZN4llvh3sys7Process11OutputColorEcbb(i8 noundef signext %code, i1 noundef zeroext %bold, i1 noundef zeroext %bg) #0 align 2 {
entry:
  %code.addr = alloca i8, align 1
  %bold.addr = alloca i8, align 1
  %bg.addr = alloca i8, align 1
  store i8 %code, ptr %code.addr, align 1
  %frombool = zext i1 %bold to i8
  store i8 %frombool, ptr %bold.addr, align 1
  %frombool1 = zext i1 %bg to i8
  store i8 %frombool1, ptr %bg.addr, align 1
  %0 = load i8, ptr %bg.addr, align 1
  %tobool = trunc i8 %0 to i1
  %cond = select i1 %tobool, i32 1, i32 0
  %idxprom = sext i32 %cond to i64
  %arrayidx = getelementptr inbounds [2 x [2 x [8 x [10 x i8]]]], ptr @_ZL10colorcodes, i64 0, i64 %idxprom
  %1 = load i8, ptr %bold.addr, align 1
  %tobool2 = trunc i8 %1 to i1
  %cond3 = select i1 %tobool2, i32 1, i32 0
  %idxprom4 = sext i32 %cond3 to i64
  %arrayidx5 = getelementptr inbounds [2 x [8 x [10 x i8]]], ptr %arrayidx, i64 0, i64 %idxprom4
  %2 = load i8, ptr %code.addr, align 1
  %conv = sext i8 %2 to i32
  %and = and i32 %conv, 7
  %idxprom6 = sext i32 %and to i64
  %arrayidx7 = getelementptr inbounds [8 x [10 x i8]], ptr %arrayidx5, i64 0, i64 %idxprom6
  %arraydecay = getelementptr inbounds [10 x i8], ptr %arrayidx7, i64 0, i64 0
  ret ptr %arraydecay
}